; Function Attrs: mustprogress nounwind uwtable
define hidden { i32, i64 } @_ZN6hermes2vm20objectDefinePropertyEPvRNS0_7RuntimeENS0_10NativeArgsE(ptr readnone captures(none) %0, ptr noundef nonnull align 8 dereferenceable(9832) %runtime, ptr noundef readonly captures(none) %args) #0 {
entry:
  %agg.tmp = alloca %"class.hermes::vm::NativeArgs", align 8
  %1 = load ptr, ptr %args, align 8
  store ptr %1, ptr %agg.tmp, align 8
  %argCount_.i = getelementptr inbounds nuw i8, ptr %agg.tmp, i64 8
  %argCount_3.i = getelementptr inbounds nuw i8, ptr %args, i64 8
  call void @llvm.memcpy.p0.p0.i64(ptr noundef nonnull align 8 dereferenceable(16) %argCount_.i, ptr noundef nonnull align 8 dereferenceable(16) %argCount_3.i, i64 16, i1 false)
  %call3 = call i32 @_ZN6hermes2vm14definePropertyERNS0_7RuntimeENS0_10NativeArgsENS0_11PropOpFlagsE(ptr noundef nonnull align 8 dereferenceable(9832) %runtime, ptr noundef nonnull %agg.tmp, i32 1)
  %bf.cast.i.i4.mask = and i32 %call3, 255
  %cmp.i = icmp eq i32 %bf.cast.i.i4.mask, 0
  br i1 %cmp.i, label %return, label %if.end

if.end:                                           ; preds = %entry
  %2 = load i32, ptr %argCount_3.i, align 8
  %cmp.i2.not = icmp eq i32 %2, 0
  br i1 %cmp.i2.not, label %return, label %cond.true.i

cond.true.i:                                      ; preds = %if.end
  %3 = load ptr, ptr %args, align 8, !noalias !80
  %incdec.ptr.i.i.i = getelementptr inbounds i8, ptr %3, i64 -8
  %retval.sroa.0.0.copyload.i3 = load i64, ptr %incdec.ptr.i.i.i, align 8
  br label %return

return:                                           ; preds = %cond.true.i, %if.end, %entry
  %retval.sroa.0.0 = phi i32 [ 0, %entry ], [ 1, %if.end ], [ 1, %cond.true.i ]
  %retval.sroa.3.0 = phi i64 [ undef, %entry ], [ -1688849860263936, %if.end ], [ %retval.sroa.0.0.copyload.i3, %cond.true.i ]
  %.fca.0.insert = insertvalue { i32, i64 } poison, i32 %retval.sroa.0.0, 0
  %.fca.1.insert = insertvalue { i32, i64 } %.fca.0.insert, i64 %retval.sroa.3.0, 1
  ret { i32, i64 } %.fca.1.insert
}